; Function Attrs: nounwind uwtable
define hidden void @_glfw_free(ptr noundef %0) local_unnamed_addr #2 {
  %.not = icmp eq ptr %0, null
  br i1 %.not, label %5, label %2

2:                                                ; preds = %1
  %3 = load ptr, ptr getelementptr inbounds nuw (i8, ptr @_glfw, i64 24), align 8, !tbaa !97
  %4 = load ptr, ptr getelementptr inbounds nuw (i8, ptr @_glfw, i64 32), align 8, !tbaa !95
  tail call void %3(ptr noundef nonnull %0, ptr noundef %4) #21
  br label %5

5:                                                ; preds = %2, %1
  ret void
}